; Function Attrs: mustprogress uwtable
define noundef i32 @_ZN4pkpy11ManagedHeap7collectEv(ptr noundef nonnull align 8 dereferenceable(84) %0) local_unnamed_addr #3 align 2 personality ptr @__gxx_personality_v0 {
  %2 = alloca %"class.std::__cxx11::basic_string", align 8
  %3 = alloca %"class.std::__cxx11::basic_string", align 8
  %4 = alloca %"class.std::__cxx11::basic_string", align 8
  %5 = alloca %"class.std::__cxx11::basic_string", align 8
  %6 = alloca %"class.std::allocator.0", align 1
  %7 = alloca %"class.std::__cxx11::basic_string", align 8
  %8 = getelementptr inbounds i8, ptr %0, i64 80
  %9 = load i32, ptr %8, align 8
  %10 = icmp eq i32 %9, 0
  br i1 %10, label %33, label %11

11:                                               ; preds = %1
  %12 = tail call ptr @__cxa_allocate_exception(i64 16) #16
  call void @_ZNSaIcEC1Ev(ptr noundef nonnull align 1 dereferenceable(1) %6) #16
  invoke void @_ZNSt7__cxx1112basic_stringIcSt11char_traitsIcESaIcEEC2IS3_EEPKcRKS3_(ptr noundef nonnull align 8 dereferenceable(32) %5, ptr noundef nonnull @.str.1, ptr noundef nonnull align 1 dereferenceable(1) %6)
          to label %13 unwind label %.thread

13:                                               ; preds = %11
  %14 = invoke noundef nonnull align 8 dereferenceable(32) ptr @_ZNSt7__cxx1112basic_stringIcSt11char_traitsIcESaIcEE6insertEmPKc(ptr noundef nonnull align 8 dereferenceable(32) %5, i64 noundef 0, ptr noundef nonnull @.str)
          to label %15 unwind label %21

15:                                               ; preds = %13
  call void @_ZNSt7__cxx1112basic_stringIcSt11char_traitsIcESaIcEEC1EOS4_(ptr noundef nonnull align 8 dereferenceable(32) %4, ptr noundef nonnull align 8 dereferenceable(32) %14) #16
  call void @_ZNSt7__cxx119to_stringEi(ptr dead_on_unwind nonnull writable sret(%"class.std::__cxx11::basic_string") align 8 %7, i32 noundef 51) #16
  invoke void @_ZStplIcSt11char_traitsIcESaIcEENSt7__cxx1112basic_stringIT_T0_T1_EEOS8_S9_(ptr dead_on_unwind nonnull writable sret(%"class.std::__cxx11::basic_string") align 8 %3, ptr noundef nonnull align 8 dereferenceable(32) %4, ptr noundef nonnull align 8 dereferenceable(32) %7)
          to label %16 unwind label %23

16:                                               ; preds = %15
  %17 = invoke noundef nonnull align 8 dereferenceable(32) ptr @_ZNSt7__cxx1112basic_stringIcSt11char_traitsIcESaIcEE6appendEPKc(ptr noundef nonnull align 8 dereferenceable(32) %3, ptr noundef nonnull @.str.2)
          to label %18 unwind label %25

18:                                               ; preds = %16
  call void @_ZNSt7__cxx1112basic_stringIcSt11char_traitsIcESaIcEEC1EOS4_(ptr noundef nonnull align 8 dereferenceable(32) %2, ptr noundef nonnull align 8 dereferenceable(32) %17) #16
  invoke void @_ZNSt13runtime_errorC1ERKNSt7__cxx1112basic_stringIcSt11char_traitsIcESaIcEEE(ptr noundef nonnull align 8 dereferenceable(16) %12, ptr noundef nonnull align 8 dereferenceable(32) %2)
          to label %19 unwind label %27

19:                                               ; preds = %18
  invoke void @__cxa_throw(ptr nonnull %12, ptr nonnull @_ZTISt13runtime_error, ptr nonnull @_ZNSt13runtime_errorD1Ev) #13
          to label %36 unwind label %27

.thread:                                          ; preds = %11
  %20 = landingpad { ptr, i32 }
          cleanup
  call void @_ZNSaIcED1Ev(ptr noundef nonnull align 1 dereferenceable(1) %6) #16
  br label %32

21:                                               ; preds = %13
  %22 = landingpad { ptr, i32 }
          cleanup
  br label %31

23:                                               ; preds = %15
  %24 = landingpad { ptr, i32 }
          cleanup
  br label %30

25:                                               ; preds = %16
  %26 = landingpad { ptr, i32 }
          cleanup
  br label %29

27:                                               ; preds = %19, %18
  %.04 = phi i1 [ false, %19 ], [ true, %18 ]
  %28 = landingpad { ptr, i32 }
          cleanup
  call void @_ZNSt7__cxx1112basic_stringIcSt11char_traitsIcESaIcEED1Ev(ptr noundef nonnull align 8 dereferenceable(32) %2) #16
  br label %29

29:                                               ; preds = %27, %25
  %.pn = phi { ptr, i32 } [ %28, %27 ], [ %26, %25 ]
  %.15 = phi i1 [ %.04, %27 ], [ true, %25 ]
  call void @_ZNSt7__cxx1112basic_stringIcSt11char_traitsIcESaIcEED1Ev(ptr noundef nonnull align 8 dereferenceable(32) %3) #16
  br label %30

30:                                               ; preds = %29, %23
  %.pn.pn = phi { ptr, i32 } [ %.pn, %29 ], [ %24, %23 ]
  %.26 = phi i1 [ %.15, %29 ], [ true, %23 ]
  call void @_ZNSt7__cxx1112basic_stringIcSt11char_traitsIcESaIcEED1Ev(ptr noundef nonnull align 8 dereferenceable(32) %7) #16
  call void @_ZNSt7__cxx1112basic_stringIcSt11char_traitsIcESaIcEED1Ev(ptr noundef nonnull align 8 dereferenceable(32) %4) #16
  br label %31

31:                                               ; preds = %21, %30
  %.pn.pn.pn = phi { ptr, i32 } [ %.pn.pn, %30 ], [ %22, %21 ]
  %.37 = phi i1 [ %.26, %30 ], [ true, %21 ]
  call void @_ZNSt7__cxx1112basic_stringIcSt11char_traitsIcESaIcEED1Ev(ptr noundef nonnull align 8 dereferenceable(32) %5) #16
  call void @_ZNSaIcED1Ev(ptr noundef nonnull align 1 dereferenceable(1) %6) #16
  br i1 %.37, label %32, label %35

32:                                               ; preds = %.thread, %31
  %.pn.pn.pn.pn19 = phi { ptr, i32 } [ %20, %.thread ], [ %.pn.pn.pn, %31 ]
  call void @__cxa_free_exception(ptr %12) #16
  br label %35

33:                                               ; preds = %1
  tail call void @_ZN4pkpy11ManagedHeap4markEv(ptr noundef nonnull align 8 dereferenceable(84) %0)
  %34 = tail call noundef i32 @_ZN4pkpy11ManagedHeap5sweepEv(ptr noundef nonnull align 8 dereferenceable(84) %0)
  ret i32 %34

35:                                               ; preds = %31, %32
  %.pn.pn.pn.pn18 = phi { ptr, i32 } [ %.pn.pn.pn, %31 ], [ %.pn.pn.pn.pn19, %32 ]
  resume { ptr, i32 } %.pn.pn.pn.pn18

36:                                               ; preds = %19
  unreachable
}